target datalayout = "e-m:e-p270:32:32-p271:32:32-p272:64:64-i64:64-i128:128-f80:128-n8:16:32:64-S128"
target triple = "x86_64-unknown-linux-gnu"

%struct.__va_list_tag = type { i32, i32, ptr, ptr }
%struct.V9fsState = type { %struct.anon, %struct.anon.0, ptr, ptr, %struct.FsContext, ptr, i32, i32, [128 x %struct.V9fsPDU], ptr, %struct.CoRwlock, i32, ptr, %struct.V9fsConf, %struct.stat, i64, %struct.qht, %struct.qht, %struct.qht, i64, i16, i64 }
%struct.anon = type { ptr }
%struct.anon.0 = type { ptr }
%struct.FsContext = type { i32, ptr, i32, ptr, %struct.ExtendedOps, ptr, ptr, i32, i32 }
%struct.ExtendedOps = type { ptr }
%struct.V9fsPDU = type { i32, i16, i8, i8, %struct.CoQueue, ptr, %struct.anon.2, i32 }
%struct.CoQueue = type { %struct.anon.1 }
%struct.anon.1 = type { ptr, ptr }
%struct.anon.2 = type { ptr, ptr }
%struct.CoRwlock = type { %struct.CoMutex, i32, %struct.anon.4 }
%struct.CoMutex = type { i32, ptr, %struct.anon.3, %struct.anon.3, i32, i32, ptr }
%struct.anon.3 = type { ptr }
%struct.anon.4 = type { ptr, ptr }
%struct.V9fsConf = type { ptr, ptr }
%struct.stat = type { i64, i64, i64, i32, i32, i32, i32, i64, i64, i64, i64, %struct.timespec, %struct.timespec, %struct.timespec, [3 x i64] }
%struct.timespec = type { i64, i64 }
%struct.qht = type { ptr, ptr, %struct.QemuMutex, i32 }
%struct.QemuMutex = type { %union.pthread_mutex_t, i8 }
%union.pthread_mutex_t = type { %struct.__pthread_mutex_s }
%struct.__pthread_mutex_s = type { i32, i32, i32, i32, i32, i16, i16, %struct.__pthread_internal_list }
%struct.__pthread_internal_list = type { ptr, ptr }
%struct.V9fsTransport = type { ptr, ptr, ptr, ptr, ptr }

; Function Attrs: nounwind sspstrong uwtable
define internal i64 @pdu_unmarshal(ptr noundef %pdu, i64 noundef %offset, ptr noundef %fmt, ...) #0 {
entry:
  %pdu.addr = alloca ptr, align 8
  %offset.addr = alloca i64, align 8
  %fmt.addr = alloca ptr, align 8
  %ret = alloca i64, align 8
  %ap = alloca [1 x %struct.__va_list_tag], align 16
  store ptr %pdu, ptr %pdu.addr, align 8
  store i64 %offset, ptr %offset.addr, align 8
  store ptr %fmt, ptr %fmt.addr, align 8
  %arraydecay = getelementptr inbounds [1 x %struct.__va_list_tag], ptr %ap, i64 0, i64 0
  call void @llvm.va_start(ptr %arraydecay)
  %0 = load ptr, ptr %pdu.addr, align 8
  %s = getelementptr inbounds %struct.V9fsPDU, ptr %0, i32 0, i32 5
  %1 = load ptr, ptr %s, align 8
  %transport = getelementptr inbounds %struct.V9fsState, ptr %1, i32 0, i32 9
  %2 = load ptr, ptr %transport, align 8
  %pdu_vunmarshal = getelementptr inbounds %struct.V9fsTransport, ptr %2, i32 0, i32 1
  %3 = load ptr, ptr %pdu_vunmarshal, align 8
  %4 = load ptr, ptr %pdu.addr, align 8
  %5 = load i64, ptr %offset.addr, align 8
  %6 = load ptr, ptr %fmt.addr, align 8
  %arraydecay1 = getelementptr inbounds [1 x %struct.__va_list_tag], ptr %ap, i64 0, i64 0
  %call = call i64 %3(ptr noundef %4, i64 noundef %5, ptr noundef %6, ptr noundef %arraydecay1)
  store i64 %call, ptr %ret, align 8
  %arraydecay2 = getelementptr inbounds [1 x %struct.__va_list_tag], ptr %ap, i64 0, i64 0
  call void @llvm.va_end(ptr %arraydecay2)
  %7 = load i64, ptr %ret, align 8
  ret i64 %7
}